Certificate:
    Data:
        Version: 3 (0x2)
        Serial Number: 20489 (0x5009)
        Signature Algorithm: sha256WithRSAEncryption
        Issuer: CN=ica.home.av
        Validity
            Not Before: Mar 12 17:00:40 2026 GMT
            Not After : Mar 26 17:00:40 2026 GMT
        Subject: CN=hub.home.av
        Subject Public Key Info:
            Public Key Algorithm: rsaEncryption
                Public-Key: (2048 bit)
                Modulus:
                    00:86:f4:97:ca:7b:b2:c4:c4:91:3a:1c:f8:f9:48:
                    5f:5a:3c:e8:84:20:cf:94:fe:0f:75:51:55:6c:92:
                    1d:c4:c9:dc:83:c2:b2:61:de:46:52:1f:65:34:ee:
                    be:87:50:42:c4:ad:60:c6:64:9d:67:d2:2e:f5:d6:
                    01:84:7f:87:89:c8:db:31:06:6a:1d:e2:99:a2:c2:
                    42:b1:77:1d:73:dd:14:1a:3c:3f:fc:72:31:5f:a9:
                    d1:29:3a:e0:e2:48:16:df:52:45:1c:71:77:51:57:
                    8f:28:ac:0b:2e:18:08:c2:3e:79:36:e6:f2:14:a4:
                    6c:04:70:c5:6f:72:d4:9a:c8:b4:76:d2:cc:f0:62:
                    e5:53:73:40:3e:8f:d5:07:3e:4d:3f:5a:b0:a4:6e:
                    04:69:75:cf:1d:55:e4:9a:27:9f:d7:b1:4e:97:5a:
                    14:cf:0c:63:cc:5d:31:02:4c:69:68:08:3e:d5:f6:
                    cd:1e:64:c3:f8:95:7f:44:10:a8:e5:25:19:ae:f7:
                    ae:22:24:2a:3d:11:37:b9:85:26:82:a7:97:73:5d:
                    f3:3e:94:ff:f0:c2:c7:ce:07:4a:ae:5d:d3:b8:4b:
                    b4:25:a4:f1:75:a1:0f:86:29:59:b4:b6:13:4e:ea:
                    a2:3a:f0:78:b1:78:39:ad:dc:65:8d:5c:c9:8a:1d:
                    ec:07
                Exponent: 65537 (0x10001)
        X509v3 extensions:
            X509v3 Subject Key Identifier: 
                98:E5:8C:83:01:F5:3F:BB:32:62:12:6E:3A:DE:6F:3E:BF:E5:14:86
            X509v3 Extended Key Usage: 
                TLS Web Server Authentication, TLS Web Client Authentication
            X509v3 Authority Key Identifier: 
                keyid:80:86:0B:93:E9:CC:95:0E:CE:F6:27:95:FD:20:88:B0:2E:46:4A:9D
                DirName:/CN=home.av
                serial:10:01
            X509v3 Key Usage: critical
                Digital Signature, Key Encipherment
            Authority Information Access: 
                CA Issuers - URI:http://localhost/ca.crt
            X509v3 CRL Distribution Points: 
                Full Name:
                  URI:http://localhost/crl/ca.crl

            X509v3 Subject Alternative Name: 
                DNS:hub.home.av
            X509v3 Basic Constraints: 
                CA:FALSE
    Signature Algorithm: sha256WithRSAEncryption
    Signature Value:
        6b:42:13:53:a1:ab:86:85:7b:2e:9a:35:2d:d8:05:20:1c:12:
        3a:b0:45:3d:39:80:aa:c0:bc:0c:c5:6f:6e:1e:39:a3:d1:5c:
        11:9f:6d:2a:70:9e:cf:4c:6e:36:61:47:59:f1:0c:36:33:5f:
        f4:24:ac:8e:a8:9b:fb:b5:1b:6f:49:39:90:59:40:31:6e:45:
        d9:2b:5e:42:4b:f6:f0:41:bc:1e:52:10:42:d0:77:6e:82:b8:
        50:58:23:9a:72:7d:1f:57:22:42:25:c7:1e:a8:9b:25:d0:d1:
        94:14:88:16:8c:f5:04:e8:52:25:41:76:e5:56:dc:ca:2e:b3:
        fb:bf:8e:21:aa:3f:cf:01:cb:e6:61:9d:85:a1:7b:99:95:a2:
        cc:4a:cd:84:52:37:c6:6a:ff:12:64:43:48:64:a4:32:26:02:
        52:27:c9:75:ae:46:ce:82:0e:63:21:12:07:10:87:eb:66:3e:
        00:25:d8:96:a7:2e:02:63:d6:93:08:04:bc:20:2c:6c:b0:7d:
        71:56:ad:30:1a:d2:23:80:50:11:f5:1b:f0:1d:29:56:f5:dc:
        d7:a6:03:ff:7b:15:93:d1:2c:7f:7f:dd:f4:6a:22:18:61:69:
        84:e9:d9:eb:99:39:34:12:60:b0:a3:50:02:d6:13:ac:b1:f1:
        eb:19:12:4e:84:8a:90:fe:c6:b1:53:39:80:4c:78:ee:b3:e1:
        9c:65:b9:91:19:af:5d:6e:f4:f9:1a:2d:04:2a:e4:d9:c3:e2:
        46:b6:91:4b:93:23:b4:12:84:4a:80:cc:f2:bf:91:d2:ef:b9:
        e5:86:97:06:71:0f:fb:ae:8d:e5:cf:68:a1:d0:0c:de:01:25:
        10:81:bb:3c:31:f7:7d:e7:a0:68:a8:95:fd:1f:1b:2b:26:fd:
        fb:8c:fa:f1:32:f2:f0:1c:d8:b6:1c:3f:3c:8b:43:1b:48:93:
        a9:68:8c:9a:d6:68:09:03:2c:2c:6c:45:03:08:9f:98:0c:f6:
        a1:dd:75:d7:f4:28:2d:77:ab:a9:02:dd:cd:98:80:3e:3d:6e:
        a3:bf:90:25:9b:dd:5f:7d:bf:06:ed:16:4f:9a:16:66:73:f5:
        a3:58:f3:48:78:8b:b1:3c:69:2f:80:2c:c9:c3:7f:ea:25:c5:
        bc:3f:4a:fc:ca:c9:f1:e6:75:b6:ef:a3:47:ee:9b:ef:6d:1a:
        84:51:9c:c3:82:ad:53:7e:86:2d:38:e4:8c:62:0b:67:56:3f:
        25:69:c9:37:7e:a1:03:54:66:6c:3c:13:db:b4:28:f2:ba:58:
        a3:27:b1:7f:d6:03:18:08:49:12:19:46:35:b9:81:19:60:18:
        e9:9c:60:ca:83:db:44:e9
-----BEGIN CERTIFICATE-----
MIIEvzCCAqegAwIBAgICUAkwDQYJKoZIhvcNAQELBQAwFjEUMBIGA1UEAwwLaWNh
LmhvbWUuYXYwHhcNMjYwMzEyMTcwMDQwWhcNMjYwMzI2MTcwMDQwWjAWMRQwEgYD
VQQDDAtodWIuaG9tZS5hdjCCASIwDQYJKoZIhvcNAQEBBQADggEPADCCAQoCggEB
AIb0l8p7ssTEkToc+PlIX1o86IQgz5T+D3VRVWySHcTJ3IPCsmHeRlIfZTTuvodQ
QsStYMZknWfSLvXWAYR/h4nI2zEGah3imaLCQrF3HXPdFBo8P/xyMV+p0Sk64OJI
Ft9SRRxxd1FXjyisCy4YCMI+eTbm8hSkbARwxW9y1JrItHbSzPBi5VNzQD6P1Qc+
TT9asKRuBGl1zx1V5Jonn9exTpdaFM8MY8xdMQJMaWgIPtX2zR5kw/iVf0QQqOUl
Ga73riIkKj0RN7mFJoKnl3Nd8z6U//DCx84HSq5d07hLtCWk8XWhD4YpWbS2E07q
ojrweLF4Oa3cZY1cyYod7AcCAwEAAaOCARUwggERMB0GA1UdDgQWBBSY5YyDAfU/
uzJiEm463m8+v+UUhjAdBgNVHSUEFjAUBggrBgEFBQcDAQYIKwYBBQUHAwIwOwYD
VR0jBDQwMoAUgIYLk+nMlQ7O9ieV/SCIsC5GSp2hFqQUMBIxEDAOBgNVBAMMB2hv
bWUuYXaCAhABMA4GA1UdDwEB/wQEAwIFoDAzBggrBgEFBQcBAQQnMCUwIwYIKwYB
BQUHMAKGF2h0dHA6Ly9sb2NhbGhvc3QvY2EuY3J0MCwGA1UdHwQlMCMwIaAfoB2G
G2h0dHA6Ly9sb2NhbGhvc3QvY3JsL2NhLmNybDAWBgNVHREEDzANggtodWIuaG9t
ZS5hdjAJBgNVHRMEAjAAMA0GCSqGSIb3DQEBCwUAA4ICAQBrQhNToauGhXsumjUt
2AUgHBI6sEU9OYCqwLwMxW9uHjmj0VwRn20qcJ7PTG42YUdZ8Qw2M1/0JKyOqJv7
tRtvSTmQWUAxbkXZK15CS/bwQbweUhBC0HdugrhQWCOacn0fVyJCJcceqJsl0NGU
FIgWjPUE6FIlQXblVtzKLrP7v44hqj/PAcvmYZ2FoXuZlaLMSs2EUjfGav8SZENI
ZKQyJgJSJ8l1rkbOgg5jIRIHEIfrZj4AJdiWpy4CY9aTCAS8ICxssH1xVq0wGtIj
gFAR9RvwHSlW9dzXpgP/exWT0Sx/f930aiIYYWmE6dnrmTk0EmCwo1AC1hOssfHr
GRJOhIqQ/saxUzmATHjus+GcZbmRGa9dbvT5Gi0EKuTZw+JGtpFLkyO0EoRKgMzy
v5HS77nlhpcGcQ/7ro3lz2ih0AzeASUQgbs8Mfd956BoqJX9HxsrJv37jPrxMvLw
HNi2HD88i0MbSJOpaIya1mgJAywsbEUDCJ+YDPah3XXX9Cgtd6upAt3NmIA+PW6j
v5Alm91ffb8G7RZPmhZmc/WjWPNIeIuxPGkvgCzJw3/qJcW8P0r8ysnx5nW276NH
7pvvbRqEUZzDgq1TfoYtOOSMYgtnVj8lack3fqEDVGZsPBPbtCjyulijJ7F/1gMY
CEkSGUY1uYEZYBjpnGDKg9tE6Q==
-----END CERTIFICATE-----
