Certificate:
    Data:
        Version: 3 (0x2)
        Serial Number: 20492 (0x500c)
        Signature Algorithm: sha256WithRSAEncryption
        Issuer: CN=ica.home.av
        Validity
            Not Before: Mar 12 18:06:28 2026 GMT
            Not After : Mar  7 18:06:28 2027 GMT
        Subject: CN=nas2.home.av
        Subject Public Key Info:
            Public Key Algorithm: rsaEncryption
                Public-Key: (2048 bit)
                Modulus:
                    00:b1:f6:5f:29:13:c3:f1:d5:fe:8e:c3:bf:cc:f3:
                    e1:1e:2f:80:49:b5:fe:84:ff:02:01:9a:f3:b7:ed:
                    d6:0d:b6:84:6c:0c:b4:a1:95:c4:42:fa:5c:e5:e8:
                    61:93:99:d5:fe:ef:c8:26:81:04:65:ba:62:e5:58:
                    c0:32:ad:15:92:5c:8d:53:83:fa:63:a7:2f:51:a5:
                    3f:b9:b7:90:20:c1:14:41:f0:af:b6:5c:97:87:19:
                    9b:1e:0e:53:da:2a:41:c1:18:ff:6b:9c:59:c7:64:
                    17:c4:75:a9:90:1e:3c:e1:9f:c7:60:73:c4:f5:19:
                    40:b6:84:ef:d6:18:f4:5e:e9:b1:8b:16:8a:d6:11:
                    fa:1d:25:d9:89:8b:e2:b6:de:31:23:52:62:27:bd:
                    76:c8:1b:87:4a:01:ca:02:25:9b:5f:b1:9c:71:62:
                    1b:55:ef:e8:73:a9:2f:1a:bb:df:38:4f:18:fb:db:
                    a7:79:f1:9e:8a:63:30:9d:c9:e4:3e:be:e8:3f:56:
                    11:a3:46:5e:f3:37:4c:c0:ae:a6:4a:8d:63:c6:98:
                    21:e5:e4:85:ca:59:e7:06:e8:30:67:78:d0:2d:d7:
                    d5:4c:a6:e6:d6:31:1a:e4:05:2d:0d:a7:13:f7:13:
                    1b:09:54:da:40:58:59:01:c0:94:d3:ac:5e:ad:af:
                    f6:71
                Exponent: 65537 (0x10001)
        X509v3 extensions:
            X509v3 Subject Key Identifier: 
                24:D2:37:C2:66:A0:41:0F:17:69:2A:53:32:17:FE:27:77:B8:0A:1C
            X509v3 Extended Key Usage: 
                TLS Web Server Authentication, TLS Web Client Authentication
            X509v3 Authority Key Identifier: 
                keyid:80:86:0B:93:E9:CC:95:0E:CE:F6:27:95:FD:20:88:B0:2E:46:4A:9D
                DirName:/CN=home.av
                serial:10:01
            X509v3 Key Usage: critical
                Digital Signature, Key Encipherment
            Authority Information Access: 
                CA Issuers - URI:http://localhost/ca.crt
            X509v3 CRL Distribution Points: 
                Full Name:
                  URI:http://localhost/crl/ca.crl

            X509v3 Subject Alternative Name: 
                DNS:nas2.home.av
            X509v3 Basic Constraints: 
                CA:FALSE
    Signature Algorithm: sha256WithRSAEncryption
    Signature Value:
        94:b8:03:d2:6f:4f:9a:79:2e:b4:9e:59:55:b3:bd:e5:f5:66:
        fa:11:2a:d7:c8:83:36:9c:67:8b:60:eb:ad:26:7c:b8:6d:d7:
        b9:4a:15:1d:1c:e6:45:b5:da:ab:f2:14:04:1c:a2:9f:6f:95:
        40:01:09:58:34:06:6f:f0:11:01:ac:da:74:d0:1f:89:35:6f:
        b3:2f:47:85:ac:50:fe:6a:c6:e1:dc:dc:ec:c4:78:c1:da:4d:
        86:45:ef:c3:38:3b:6b:ff:b8:65:e8:fc:0f:97:4a:86:bd:cf:
        2d:ec:70:f1:d4:9b:42:46:45:06:01:16:d0:b2:30:68:36:ee:
        fc:8a:ed:87:35:88:e8:f9:84:d7:9f:95:21:91:08:64:83:87:
        b4:d5:57:72:64:1f:12:ac:60:a5:f3:3f:23:42:c9:18:b7:f6:
        4b:1d:13:8c:f7:e2:21:00:e5:66:bd:01:35:99:48:ab:19:28:
        41:e6:47:f0:2f:2e:7b:34:c3:c6:23:5b:a3:ec:2b:8a:14:26:
        3c:00:8f:43:6e:7e:dd:5e:5a:ff:7e:39:2d:08:0d:57:24:d3:
        eb:01:ee:eb:ac:8c:fd:5d:18:fb:9e:26:9b:a9:4b:25:42:2a:
        12:92:14:f1:d4:9d:ba:4c:69:c4:b5:4f:9a:2c:37:d6:93:4a:
        29:b5:b0:aa:7d:58:8f:e9:e4:b5:38:35:c9:4a:be:85:e7:25:
        28:be:ee:6d:10:d8:cf:7d:04:1e:c8:82:71:3d:51:f6:c7:0d:
        60:3b:b2:1a:05:44:9f:6d:6f:30:bd:dc:d2:d1:09:d5:64:b0:
        51:83:de:72:33:2b:cd:e5:8e:fa:62:e2:10:3d:f0:bd:84:81:
        67:61:af:fd:c8:e8:79:bc:d8:c8:82:cf:7a:d7:b9:04:8d:4a:
        1a:fa:1b:8a:53:a4:ba:95:dc:42:17:a0:2a:19:e9:db:27:12:
        ae:5b:90:72:de:dc:30:fa:aa:89:ee:b8:b1:f9:5c:d3:dc:30:
        2e:a6:15:00:c6:57:da:ae:b3:d3:c8:8e:5b:49:1d:53:3d:1a:
        b2:7a:b8:a5:62:0a:d1:3b:d6:86:22:65:14:9c:a5:76:9b:ce:
        79:c7:65:d2:bb:70:be:51:45:52:50:60:04:b0:28:b0:ae:f1:
        44:ac:79:74:f8:63:7a:a9:b0:90:53:07:ab:84:86:da:a1:99:
        2f:de:5f:2b:07:3f:35:2d:92:53:dc:91:d3:0a:6c:83:f9:30:
        58:cb:8c:73:31:02:51:de:a1:3e:72:d4:07:e5:26:e9:ec:62:
        3b:e3:02:7f:91:19:c1:a0:91:52:62:26:db:c5:66:6d:33:17:
        9f:bb:90:10:c3:76:ae:50
-----BEGIN CERTIFICATE-----
MIIEwTCCAqmgAwIBAgICUAwwDQYJKoZIhvcNAQELBQAwFjEUMBIGA1UEAwwLaWNh
LmhvbWUuYXYwHhcNMjYwMzEyMTgwNjI4WhcNMjcwMzA3MTgwNjI4WjAXMRUwEwYD
VQQDDAxuYXMyLmhvbWUuYXYwggEiMA0GCSqGSIb3DQEBAQUAA4IBDwAwggEKAoIB
AQCx9l8pE8Px1f6Ow7/M8+EeL4BJtf6E/wIBmvO37dYNtoRsDLShlcRC+lzl6GGT
mdX+78gmgQRlumLlWMAyrRWSXI1Tg/pjpy9RpT+5t5AgwRRB8K+2XJeHGZseDlPa
KkHBGP9rnFnHZBfEdamQHjzhn8dgc8T1GUC2hO/WGPRe6bGLForWEfodJdmJi+K2
3jEjUmInvXbIG4dKAcoCJZtfsZxxYhtV7+hzqS8au984Txj726d58Z6KYzCdyeQ+
vug/VhGjRl7zN0zArqZKjWPGmCHl5IXKWecG6DBneNAt19VMpubWMRrkBS0NpxP3
ExsJVNpAWFkBwJTTrF6tr/ZxAgMBAAGjggEWMIIBEjAdBgNVHQ4EFgQUJNI3wmag
QQ8XaSpTMhf+J3e4ChwwHQYDVR0lBBYwFAYIKwYBBQUHAwEGCCsGAQUFBwMCMDsG
A1UdIwQ0MDKAFICGC5PpzJUOzvYnlf0giLAuRkqdoRakFDASMRAwDgYDVQQDDAdo
b21lLmF2ggIQATAOBgNVHQ8BAf8EBAMCBaAwMwYIKwYBBQUHAQEEJzAlMCMGCCsG
AQUFBzAChhdodHRwOi8vbG9jYWxob3N0L2NhLmNydDAsBgNVHR8EJTAjMCGgH6Ad
hhtodHRwOi8vbG9jYWxob3N0L2NybC9jYS5jcmwwFwYDVR0RBBAwDoIMbmFzMi5o
b21lLmF2MAkGA1UdEwQCMAAwDQYJKoZIhvcNAQELBQADggIBAJS4A9JvT5p5LrSe
WVWzveX1ZvoRKtfIgzacZ4tg660mfLht17lKFR0c5kW12qvyFAQcop9vlUABCVg0
Bm/wEQGs2nTQH4k1b7MvR4WsUP5qxuHc3OzEeMHaTYZF78M4O2v/uGXo/A+XSoa9
zy3scPHUm0JGRQYBFtCyMGg27vyK7Yc1iOj5hNeflSGRCGSDh7TVV3JkHxKsYKXz
PyNCyRi39ksdE4z34iEA5Wa9ATWZSKsZKEHmR/AvLns0w8YjW6PsK4oUJjwAj0Nu
ft1eWv9+OS0IDVck0+sB7uusjP1dGPueJpupSyVCKhKSFPHUnbpMacS1T5osN9aT
Sim1sKp9WI/p5LU4NclKvoXnJSi+7m0Q2M99BB7IgnE9UfbHDWA7shoFRJ9tbzC9
3NLRCdVksFGD3nIzK83ljvpi4hA98L2EgWdhr/3I6Hm82MiCz3rXuQSNShr6G4pT
pLqV3EIXoCoZ6dsnEq5bkHLe3DD6qonuuLH5XNPcMC6mFQDGV9qus9PIjltJHVM9
GrJ6uKViCtE71oYiZRScpXabznnHZdK7cL5RRVJQYASwKLCu8USseXT4Y3qpsJBT
B6uEhtqhmS/eXysHPzUtklPckdMKbIP5MFjLjHMxAlHeoT5y1AflJunsYjvjAn+R
GcGgkVJiJtvFZm0zF5+7kBDDdq5Q
-----END CERTIFICATE-----
