Certificate:
    Data:
        Version: 3 (0x2)
        Serial Number: 20488 (0x5008)
        Signature Algorithm: sha256WithRSAEncryption
        Issuer: CN=ica.home.av
        Validity
            Not Before: Feb  9 14:04:22 2026 GMT
            Not After : Feb 11 14:04:22 2026 GMT
        Subject: CN=dev.home.av
        Subject Public Key Info:
            Public Key Algorithm: rsaEncryption
                Public-Key: (2048 bit)
                Modulus:
                    00:b6:cf:10:91:55:2b:80:d2:ac:f5:31:f9:8c:6d:
                    db:7d:1d:19:79:6d:1c:84:68:37:47:12:80:44:69:
                    de:ce:57:5c:ff:43:38:32:c7:8a:7b:1a:2d:e9:dc:
                    2c:34:cd:cd:a5:d6:01:93:13:90:9d:88:0d:eb:2c:
                    35:1b:c4:9c:8a:44:bb:69:65:6e:78:56:9c:a7:d4:
                    7d:b4:4d:0d:54:ea:84:7b:86:6b:8e:61:40:b1:30:
                    18:c4:dd:bc:0b:72:4f:62:36:b8:e7:aa:53:eb:39:
                    15:87:db:73:9d:1c:df:7e:38:3d:61:ef:cf:05:8a:
                    e4:ba:b7:93:39:31:d0:db:e1:db:ab:35:8c:08:68:
                    58:42:6f:7a:d1:43:54:ae:8a:16:d9:fd:e0:85:a5:
                    f6:df:32:ac:70:8a:f5:b7:d7:69:95:16:3f:0a:9f:
                    2d:07:5f:55:41:4e:c5:28:47:9b:6b:08:34:13:b2:
                    50:53:a1:9e:e8:01:6e:a2:f8:15:ae:1c:50:b8:26:
                    b4:57:70:99:35:1d:6b:a4:2e:31:7e:f8:a9:39:71:
                    81:62:f6:8f:b8:14:d7:12:3f:c6:9e:21:e3:2b:f8:
                    84:83:e2:a9:2c:53:81:13:42:5c:c8:05:74:4a:64:
                    95:1a:97:44:de:30:16:b6:95:80:5d:60:37:d1:ad:
                    f4:a3
                Exponent: 65537 (0x10001)
        X509v3 extensions:
            X509v3 Subject Key Identifier: 
                5B:A7:C5:EA:1E:FD:93:C2:39:76:FC:A2:97:E5:4D:FC:90:D5:91:86
            X509v3 Extended Key Usage: 
                TLS Web Server Authentication, TLS Web Client Authentication
            X509v3 Authority Key Identifier: 
                keyid:80:86:0B:93:E9:CC:95:0E:CE:F6:27:95:FD:20:88:B0:2E:46:4A:9D
                DirName:/CN=home.av
                serial:10:01
            X509v3 Key Usage: critical
                Digital Signature, Key Encipherment
            Authority Information Access: 
                CA Issuers - URI:http://localhost/ca.crt
            X509v3 CRL Distribution Points: 
                Full Name:
                  URI:http://localhost/crl/ca.crl

            X509v3 Subject Alternative Name: 
                DNS:dev.home.av
            X509v3 Basic Constraints: 
                CA:FALSE
    Signature Algorithm: sha256WithRSAEncryption
    Signature Value:
        0d:1d:50:9a:a0:5c:a5:1b:32:57:b6:49:d3:30:e5:8e:75:d4:
        04:88:8e:0e:cd:51:ca:54:6c:2a:5e:85:96:a1:a2:6a:78:c1:
        72:34:76:6e:38:c9:5a:dd:14:37:17:f1:75:c2:1c:21:bf:45:
        dc:50:19:47:8c:9e:be:6e:29:8c:ed:c3:b3:fb:25:7c:df:8b:
        8b:08:ea:0a:1b:c5:fb:e1:39:89:d8:c8:fb:4a:63:a9:bb:ef:
        2f:74:64:91:1d:fe:73:c3:9f:44:0b:3a:0b:b5:19:e6:cd:9c:
        2d:dc:ee:43:4d:17:7b:2f:11:3a:09:6f:f4:ec:7c:f4:46:9a:
        de:22:04:89:06:41:76:c6:44:68:6f:c0:eb:4d:a6:4a:4c:35:
        62:f4:60:13:1a:39:cd:db:27:b6:4f:97:dc:43:9f:b9:e8:bb:
        89:a6:a6:ca:17:f3:b0:22:09:11:42:94:39:04:0c:e5:1f:f0:
        b9:8a:b5:4e:d9:7b:45:25:da:66:9d:24:7c:5f:bf:d0:3f:fa:
        ec:71:02:84:ec:d3:0f:70:63:03:7b:5c:3c:5a:5e:85:2f:55:
        35:f1:a7:4c:db:98:8b:04:fa:da:af:96:99:27:48:92:07:46:
        1c:c9:5b:f7:24:9a:30:61:f7:81:89:89:89:2d:46:51:53:57:
        9b:0a:04:24:a3:b4:c3:77:f6:e6:90:a8:8b:44:7e:70:8b:01:
        8a:71:53:69:36:c4:4a:ff:90:71:4a:f1:75:36:d9:a5:bd:ef:
        49:94:c6:3a:a6:ec:2d:fd:62:07:0d:6b:e9:0e:99:48:c2:82:
        78:f8:78:55:8d:2b:6b:b9:b6:ec:82:9c:ea:6c:3f:b6:f4:0a:
        d0:c0:8d:3b:d1:47:0a:f6:3a:a9:f0:6f:69:d1:49:bd:ab:71:
        fb:d1:8f:01:7e:a7:26:81:cc:69:6a:52:d9:04:23:f1:d5:d6:
        ae:f0:24:72:c0:73:38:bc:cf:d8:3a:6a:c2:a2:b0:2b:93:f4:
        0a:e8:22:ce:33:d0:a9:f4:77:60:e1:b8:2d:32:46:ce:83:67:
        45:e7:2d:c1:17:cf:91:f3:a3:6c:84:b3:ea:c7:fa:01:6d:62:
        dd:9a:4e:b4:e8:d3:60:4b:cd:c7:40:cd:1a:aa:7f:98:dc:0d:
        8c:09:f4:bf:37:79:10:50:fa:09:32:8b:44:2e:4c:01:09:0e:
        55:48:dc:6c:44:3b:4f:8f:30:4b:cf:4b:da:06:e7:62:67:94:
        fe:67:0e:91:39:b8:5c:44:a9:0f:1b:83:a5:50:5e:2d:6f:fc:
        30:a7:53:2a:8d:fe:2c:cb:39:7a:73:5f:1b:3e:87:fc:d6:17:
        a5:c3:02:f0:a8:a1:78:92
-----BEGIN CERTIFICATE-----
MIIEvzCCAqegAwIBAgICUAgwDQYJKoZIhvcNAQELBQAwFjEUMBIGA1UEAwwLaWNh
LmhvbWUuYXYwHhcNMjYwMjA5MTQwNDIyWhcNMjYwMjExMTQwNDIyWjAWMRQwEgYD
VQQDDAtkZXYuaG9tZS5hdjCCASIwDQYJKoZIhvcNAQEBBQADggEPADCCAQoCggEB
ALbPEJFVK4DSrPUx+Yxt230dGXltHIRoN0cSgERp3s5XXP9DODLHinsaLencLDTN
zaXWAZMTkJ2IDessNRvEnIpEu2llbnhWnKfUfbRNDVTqhHuGa45hQLEwGMTdvAty
T2I2uOeqU+s5FYfbc50c3344PWHvzwWK5Lq3kzkx0Nvh26s1jAhoWEJvetFDVK6K
Ftn94IWl9t8yrHCK9bfXaZUWPwqfLQdfVUFOxShHm2sINBOyUFOhnugBbqL4Fa4c
ULgmtFdwmTUda6QuMX74qTlxgWL2j7gU1xI/xp4h4yv4hIPiqSxTgRNCXMgFdEpk
lRqXRN4wFraVgF1gN9Gt9KMCAwEAAaOCARUwggERMB0GA1UdDgQWBBRbp8XqHv2T
wjl2/KKX5U38kNWRhjAdBgNVHSUEFjAUBggrBgEFBQcDAQYIKwYBBQUHAwIwOwYD
VR0jBDQwMoAUgIYLk+nMlQ7O9ieV/SCIsC5GSp2hFqQUMBIxEDAOBgNVBAMMB2hv
bWUuYXaCAhABMA4GA1UdDwEB/wQEAwIFoDAzBggrBgEFBQcBAQQnMCUwIwYIKwYB
BQUHMAKGF2h0dHA6Ly9sb2NhbGhvc3QvY2EuY3J0MCwGA1UdHwQlMCMwIaAfoB2G
G2h0dHA6Ly9sb2NhbGhvc3QvY3JsL2NhLmNybDAWBgNVHREEDzANggtkZXYuaG9t
ZS5hdjAJBgNVHRMEAjAAMA0GCSqGSIb3DQEBCwUAA4ICAQANHVCaoFylGzJXtknT
MOWOddQEiI4OzVHKVGwqXoWWoaJqeMFyNHZuOMla3RQ3F/F1whwhv0XcUBlHjJ6+
bimM7cOz+yV834uLCOoKG8X74TmJ2Mj7SmOpu+8vdGSRHf5zw59ECzoLtRnmzZwt
3O5DTRd7LxE6CW/07Hz0RpreIgSJBkF2xkRob8DrTaZKTDVi9GATGjnN2ye2T5fc
Q5+56LuJpqbKF/OwIgkRQpQ5BAzlH/C5irVO2XtFJdpmnSR8X7/QP/rscQKE7NMP
cGMDe1w8Wl6FL1U18adM25iLBPrar5aZJ0iSB0YcyVv3JJowYfeBiYmJLUZRU1eb
CgQko7TDd/bmkKiLRH5wiwGKcVNpNsRK/5BxSvF1Ntmlve9JlMY6puwt/WIHDWvp
DplIwoJ4+HhVjStrubbsgpzqbD+29ArQwI070UcK9jqp8G9p0Um9q3H70Y8Bfqcm
gcxpalLZBCPx1dau8CRywHM4vM/YOmrCorArk/QK6CLOM9Cp9Hdg4bgtMkbOg2dF
5y3BF8+R86NshLPqx/oBbWLdmk606NNgS83HQM0aqn+Y3A2MCfS/N3kQUPoJMotE
LkwBCQ5VSNxsRDtPjzBLz0vaBudiZ5T+Zw6RObhcRKkPG4OlUF4tb/wwp1Mqjf4s
yzl6c18bPof81helwwLwqKF4kg==
-----END CERTIFICATE-----
