Certificate:
    Data:
        Version: 3 (0x2)
        Serial Number: 20490 (0x500a)
        Signature Algorithm: sha256WithRSAEncryption
        Issuer: CN=ica.home.av
        Validity
            Not Before: Mar 12 17:20:35 2026 GMT
            Not After : Apr 12 17:20:35 2026 GMT
        Subject: CN=cloud.home.av
        Subject Public Key Info:
            Public Key Algorithm: rsaEncryption
                Public-Key: (2048 bit)
                Modulus:
                    00:bd:d9:9d:99:b9:5f:e7:b4:77:5e:02:ee:a5:a8:
                    1f:b5:db:b3:64:e7:36:20:d6:ee:49:2e:76:7d:71:
                    54:5b:7a:03:fa:3d:36:ec:fc:ce:90:46:97:d5:6d:
                    4d:03:36:c1:d3:a8:c1:44:45:9f:9f:e4:61:52:4b:
                    4c:69:34:ed:38:e8:56:49:71:13:6b:fd:fa:81:3e:
                    70:13:7e:14:89:97:c5:ab:de:fd:f6:2f:85:e2:86:
                    08:27:e0:33:23:2d:07:a6:1d:76:02:66:62:2b:5f:
                    bc:99:09:9b:74:78:d0:06:05:ea:da:1e:96:41:42:
                    30:95:5f:dd:b1:92:75:ff:c9:20:b4:77:79:fc:08:
                    de:a5:0f:59:13:7b:b9:7e:a7:2a:30:0f:8e:d9:2a:
                    e9:61:2c:6e:a1:43:cd:ec:35:1f:d8:97:33:f8:72:
                    03:12:aa:d5:ab:a1:10:b4:76:b2:55:ac:d1:c9:9c:
                    fa:43:fe:64:5e:43:32:7e:a2:36:c9:28:ad:f0:9d:
                    24:dc:31:cc:57:1e:6a:9c:89:07:ff:5d:a7:18:41:
                    98:87:65:5f:a7:61:d1:d0:3b:60:f1:69:ea:e2:5d:
                    ae:f3:23:b4:1c:0d:22:f2:d5:ce:c8:73:af:eb:64:
                    f7:af:1d:54:0f:d7:6c:7e:3e:fb:11:7f:51:90:56:
                    04:0b
                Exponent: 65537 (0x10001)
        X509v3 extensions:
            X509v3 Subject Key Identifier: 
                28:3D:88:75:16:8A:49:1E:92:23:13:CB:03:31:12:C4:FF:EE:0A:30
            X509v3 Extended Key Usage: 
                TLS Web Server Authentication, TLS Web Client Authentication
            X509v3 Authority Key Identifier: 
                keyid:80:86:0B:93:E9:CC:95:0E:CE:F6:27:95:FD:20:88:B0:2E:46:4A:9D
                DirName:/CN=home.av
                serial:10:01
            X509v3 Key Usage: critical
                Digital Signature, Key Encipherment
            Authority Information Access: 
                CA Issuers - URI:http://localhost/ca.crt
            X509v3 CRL Distribution Points: 
                Full Name:
                  URI:http://localhost/crl/ca.crl

            X509v3 Subject Alternative Name: 
                DNS:cloud.home.av
            X509v3 Basic Constraints: 
                CA:FALSE
    Signature Algorithm: sha256WithRSAEncryption
    Signature Value:
        1c:23:61:9d:61:e6:ef:e6:12:0a:bb:a3:5e:56:21:a9:07:6b:
        dc:d0:45:4b:de:86:c7:e0:46:e6:d4:9d:5e:1a:6a:bc:13:6d:
        6a:13:c0:90:fe:d7:bf:35:b2:4b:b0:89:4f:3d:95:b2:c0:ee:
        78:84:3f:1f:5d:fa:12:49:53:3b:18:41:03:01:04:37:4c:92:
        9c:76:e4:b6:10:f6:ff:3f:79:e1:54:07:aa:dc:c2:22:c6:60:
        dd:64:8b:82:57:e1:a7:5d:de:aa:28:43:9a:08:51:29:71:b4:
        4a:63:0b:b9:25:22:12:fb:4b:43:9b:3d:9b:5e:d8:a6:67:4f:
        6d:e2:03:1d:51:e3:a9:76:69:f7:e2:0c:92:b1:a0:a9:47:0b:
        50:86:1c:1f:74:fb:2a:16:45:72:f0:97:84:79:d9:f9:76:75:
        12:7d:cd:33:12:71:a4:3d:3b:fa:6e:e8:6e:0e:de:22:be:83:
        7c:e8:e0:88:ea:df:b9:4f:24:bb:2d:0e:05:9f:17:66:13:da:
        11:67:b4:1e:ba:51:c7:56:b8:97:3e:d3:f3:d8:6c:6e:57:3f:
        cb:e5:8d:ae:8b:8e:07:93:45:7f:35:eb:f4:9c:54:48:20:54:
        2e:0a:2c:ef:c0:1b:9d:4e:5d:da:9b:c6:5f:d7:1a:4a:c5:31:
        6e:d5:ff:38:f6:b0:80:d5:73:77:2e:86:35:b5:4d:0a:4a:55:
        32:62:98:6e:f5:4e:a1:de:d9:6b:05:5a:05:62:ac:db:fc:35:
        df:bd:1c:12:01:f9:92:0e:e0:7a:79:ab:6b:5d:e2:b0:1e:27:
        34:e7:c6:09:de:62:79:ae:5b:04:af:b6:26:a8:53:de:90:0e:
        3c:cb:2d:57:2b:c4:cd:99:a7:39:4d:0e:80:fd:ff:95:e4:5c:
        8a:4b:a3:af:53:7a:07:d4:86:8b:2f:45:d5:20:be:ca:57:2d:
        d4:1d:04:a7:90:8e:b3:1f:68:67:43:09:da:32:b4:a3:52:c3:
        7a:01:d2:3d:ab:99:f1:f9:18:e4:80:d4:a3:16:23:97:9c:4d:
        c9:f8:f8:70:00:25:93:14:99:36:e9:98:69:24:a8:64:cc:2d:
        f1:6b:5a:63:91:96:68:3f:d6:4f:0f:6e:b1:ef:84:9f:23:85:
        35:30:19:3a:65:9d:f7:ea:bd:b4:af:8a:c3:2e:5c:01:0c:80:
        87:e3:1b:78:98:e6:a3:87:64:00:5c:42:14:c3:dc:35:3e:cf:
        e9:d7:bb:cf:18:b0:11:e8:b2:06:65:5a:51:71:fc:e1:fb:a6:
        87:ac:39:6c:53:ee:57:75:07:2b:fc:80:ae:d1:fb:d0:90:3d:
        b6:3e:83:fc:0b:d5:5b:93
-----BEGIN CERTIFICATE-----
MIIEwzCCAqugAwIBAgICUAowDQYJKoZIhvcNAQELBQAwFjEUMBIGA1UEAwwLaWNh
LmhvbWUuYXYwHhcNMjYwMzEyMTcyMDM1WhcNMjYwNDEyMTcyMDM1WjAYMRYwFAYD
VQQDDA1jbG91ZC5ob21lLmF2MIIBIjANBgkqhkiG9w0BAQEFAAOCAQ8AMIIBCgKC
AQEAvdmdmblf57R3XgLupagftduzZOc2INbuSS52fXFUW3oD+j027PzOkEaX1W1N
AzbB06jBREWfn+RhUktMaTTtOOhWSXETa/36gT5wE34UiZfFq9799i+F4oYIJ+Az
Iy0Hph12AmZiK1+8mQmbdHjQBgXq2h6WQUIwlV/dsZJ1/8kgtHd5/AjepQ9ZE3u5
fqcqMA+O2SrpYSxuoUPN7DUf2Jcz+HIDEqrVq6EQtHayVazRyZz6Q/5kXkMyfqI2
ySit8J0k3DHMVx5qnIkH/12nGEGYh2Vfp2HR0Dtg8Wnq4l2u8yO0HA0i8tXOyHOv
62T3rx1UD9dsfj77EX9RkFYECwIDAQABo4IBFzCCARMwHQYDVR0OBBYEFCg9iHUW
ikkekiMTywMxEsT/7gowMB0GA1UdJQQWMBQGCCsGAQUFBwMBBggrBgEFBQcDAjA7
BgNVHSMENDAygBSAhguT6cyVDs72J5X9IIiwLkZKnaEWpBQwEjEQMA4GA1UEAwwH
aG9tZS5hdoICEAEwDgYDVR0PAQH/BAQDAgWgMDMGCCsGAQUFBwEBBCcwJTAjBggr
BgEFBQcwAoYXaHR0cDovL2xvY2FsaG9zdC9jYS5jcnQwLAYDVR0fBCUwIzAhoB+g
HYYbaHR0cDovL2xvY2FsaG9zdC9jcmwvY2EuY3JsMBgGA1UdEQQRMA+CDWNsb3Vk
LmhvbWUuYXYwCQYDVR0TBAIwADANBgkqhkiG9w0BAQsFAAOCAgEAHCNhnWHm7+YS
CrujXlYhqQdr3NBFS96Gx+BG5tSdXhpqvBNtahPAkP7XvzWyS7CJTz2VssDueIQ/
H136EklTOxhBAwEEN0ySnHbkthD2/z954VQHqtzCIsZg3WSLglfhp13eqihDmghR
KXG0SmMLuSUiEvtLQ5s9m17YpmdPbeIDHVHjqXZp9+IMkrGgqUcLUIYcH3T7KhZF
cvCXhHnZ+XZ1En3NMxJxpD07+m7obg7eIr6DfOjgiOrfuU8kuy0OBZ8XZhPaEWe0
HrpRx1a4lz7T89hsblc/y+WNrouOB5NFfzXr9JxUSCBULgos78AbnU5d2pvGX9ca
SsUxbtX/OPawgNVzdy6GNbVNCkpVMmKYbvVOod7ZawVaBWKs2/w1370cEgH5kg7g
enmra13isB4nNOfGCd5iea5bBK+2JqhT3pAOPMstVyvEzZmnOU0OgP3/leRcikuj
r1N6B9SGiy9F1SC+ylct1B0Ep5COsx9oZ0MJ2jK0o1LDegHSPauZ8fkY5IDUoxYj
l5xNyfj4cAAlkxSZNumYaSSoZMwt8WtaY5GWaD/WTw9use+EnyOFNTAZOmWd9+q9
tK+Kwy5cAQyAh+MbeJjmo4dkAFxCFMPcNT7P6de7zxiwEeiyBmVaUXH84fumh6w5
bFPuV3UHK/yArtH70JA9tj6D/AvVW5M=
-----END CERTIFICATE-----
