Certificate:
    Data:
        Version: 3 (0x2)
        Serial Number: 20491 (0x500b)
        Signature Algorithm: sha256WithRSAEncryption
        Issuer: CN=ica.home.av
        Validity
            Not Before: Mar 12 18:06:10 2026 GMT
            Not After : Mar  7 18:06:10 2027 GMT
        Subject: CN=nas.home.av
        Subject Public Key Info:
            Public Key Algorithm: rsaEncryption
                Public-Key: (2048 bit)
                Modulus:
                    00:93:42:1b:a1:19:46:0a:b8:2a:a7:07:11:d8:0b:
                    ee:5d:d7:db:33:43:13:99:31:e0:28:4c:52:6e:bf:
                    2b:e9:77:5c:19:fa:a1:c9:65:db:1f:9d:17:31:99:
                    61:69:94:07:ae:e5:74:71:3e:6e:ef:4e:62:e1:2a:
                    b7:cc:eb:28:4e:43:23:e6:a6:96:1e:0d:a9:03:8c:
                    e3:55:de:ac:28:80:61:c3:3a:a1:16:1c:84:84:04:
                    b6:56:95:f0:cb:f6:89:bf:af:cf:02:d2:d5:8f:23:
                    99:be:42:2f:bb:00:c8:20:02:47:d2:0d:01:53:a2:
                    93:50:c1:fb:f8:65:54:92:07:58:e0:1e:ab:e5:95:
                    71:5f:01:b1:e8:07:4e:16:e0:f2:98:33:74:91:de:
                    20:38:16:32:05:c6:6c:8b:a7:02:e3:5c:0a:81:f0:
                    35:64:66:a5:1f:c0:66:ef:60:0e:13:d9:67:56:08:
                    65:5f:00:34:6a:7d:fc:c1:00:fe:fe:9a:4c:df:d6:
                    f3:29:6c:dc:49:e4:09:98:f5:d4:1a:47:f1:e9:57:
                    f2:37:14:1a:1c:9a:38:fa:7d:b3:fb:70:7b:22:33:
                    38:dc:ac:37:c4:9d:43:be:07:85:15:ce:4e:85:b2:
                    51:f6:81:87:47:ce:5f:99:72:f5:6f:c1:b0:8a:19:
                    80:b1
                Exponent: 65537 (0x10001)
        X509v3 extensions:
            X509v3 Subject Key Identifier: 
                D4:71:59:21:C0:47:DF:55:CE:C3:8C:C6:97:22:06:CE:3F:92:40:34
            X509v3 Extended Key Usage: 
                TLS Web Server Authentication, TLS Web Client Authentication
            X509v3 Authority Key Identifier: 
                keyid:80:86:0B:93:E9:CC:95:0E:CE:F6:27:95:FD:20:88:B0:2E:46:4A:9D
                DirName:/CN=home.av
                serial:10:01
            X509v3 Key Usage: critical
                Digital Signature, Key Encipherment
            Authority Information Access: 
                CA Issuers - URI:http://localhost/ca.crt
            X509v3 CRL Distribution Points: 
                Full Name:
                  URI:http://localhost/crl/ca.crl

            X509v3 Subject Alternative Name: 
                DNS:nas.home.av
            X509v3 Basic Constraints: 
                CA:FALSE
    Signature Algorithm: sha256WithRSAEncryption
    Signature Value:
        0f:57:ef:83:35:5b:6f:9d:b5:63:44:54:d3:84:a9:f4:b2:0b:
        4d:48:60:13:ce:4d:09:1a:58:11:db:c7:00:5c:ca:1f:2d:cd:
        9e:5c:16:99:55:76:8c:eb:cc:22:fc:a2:67:a3:bf:6a:01:7d:
        ce:9d:81:8b:49:b2:58:c5:92:77:11:e9:42:6d:d5:da:5d:5f:
        09:ea:5a:ea:be:de:95:2f:1d:37:1f:e3:ad:a3:b0:e9:29:29:
        af:db:60:cf:d3:4f:c5:fc:ff:d2:3e:75:a7:bd:e9:a0:47:38:
        fd:0d:b1:6d:c3:67:07:cd:57:10:ff:74:de:a7:47:1b:eb:2c:
        64:f3:a0:00:91:56:43:f3:aa:80:3d:a5:7d:ec:cf:7c:e7:91:
        5b:0f:2a:57:98:6d:ec:14:63:08:d3:68:ff:c3:8a:52:69:cd:
        1a:2c:bb:46:78:98:3f:b7:7b:b0:fb:33:f1:52:3c:38:f4:70:
        88:bd:66:75:fe:d5:cf:4c:4b:f2:fb:de:a5:ef:d5:ed:84:c7:
        af:94:af:37:74:76:04:0d:88:ac:91:00:29:eb:a8:b5:f5:fe:
        e6:f6:2a:71:c9:00:10:05:60:c3:00:c6:e1:79:39:85:22:d4:
        bc:14:34:16:e6:89:8e:42:ed:5e:92:ad:6e:fa:d4:10:81:fe:
        52:2c:aa:b0:47:a9:43:d9:a7:95:7b:95:90:f2:13:8d:9e:90:
        0c:ae:c0:24:13:5e:64:10:a8:3d:4e:1b:27:ed:3f:a3:ba:6b:
        9c:35:f9:e8:c5:ed:95:fd:be:c4:86:6e:73:a6:7f:c1:62:5f:
        0c:49:a7:5d:c4:53:49:45:a0:4d:fe:b5:f7:fa:08:45:f9:1b:
        12:bd:a2:3b:32:a2:86:cf:0a:b4:49:71:5b:0d:8a:45:b4:6c:
        84:e1:f1:7a:70:c0:76:2e:d0:b4:c9:85:80:66:fa:ec:bf:25:
        14:31:16:d3:ff:65:34:3b:72:40:7d:dc:9f:b3:cb:f7:55:91:
        d8:ca:fa:be:11:8d:2e:52:e0:71:f3:cf:85:e2:63:db:c7:94:
        09:45:80:eb:f3:f1:e5:cd:7b:7f:e9:b5:92:ed:ee:c3:6a:62:
        82:66:18:91:1c:f2:ce:80:89:68:ba:9d:be:e7:57:5b:58:f7:
        2b:a5:71:15:fe:62:43:18:df:da:d0:83:ef:9e:e9:ec:68:01:
        e0:a4:c3:64:83:ef:d5:22:5d:e3:ed:31:c1:43:18:df:ef:e1:
        27:df:c0:87:54:4e:14:42:24:05:31:cb:f1:35:f2:0a:d6:a6:
        69:8c:71:b9:a7:39:c0:9b:cf:a1:1c:fb:a7:22:ce:89:6c:4b:
        4e:ac:67:27:b1:7b:10:15
-----BEGIN CERTIFICATE-----
MIIEvzCCAqegAwIBAgICUAswDQYJKoZIhvcNAQELBQAwFjEUMBIGA1UEAwwLaWNh
LmhvbWUuYXYwHhcNMjYwMzEyMTgwNjEwWhcNMjcwMzA3MTgwNjEwWjAWMRQwEgYD
VQQDDAtuYXMuaG9tZS5hdjCCASIwDQYJKoZIhvcNAQEBBQADggEPADCCAQoCggEB
AJNCG6EZRgq4KqcHEdgL7l3X2zNDE5kx4ChMUm6/K+l3XBn6ocll2x+dFzGZYWmU
B67ldHE+bu9OYuEqt8zrKE5DI+amlh4NqQOM41XerCiAYcM6oRYchIQEtlaV8Mv2
ib+vzwLS1Y8jmb5CL7sAyCACR9INAVOik1DB+/hlVJIHWOAeq+WVcV8BsegHThbg
8pgzdJHeIDgWMgXGbIunAuNcCoHwNWRmpR/AZu9gDhPZZ1YIZV8ANGp9/MEA/v6a
TN/W8yls3EnkCZj11BpH8elX8jcUGhyaOPp9s/tweyIzONysN8SdQ74HhRXOToWy
UfaBh0fOX5ly9W/BsIoZgLECAwEAAaOCARUwggERMB0GA1UdDgQWBBTUcVkhwEff
Vc7DjMaXIgbOP5JANDAdBgNVHSUEFjAUBggrBgEFBQcDAQYIKwYBBQUHAwIwOwYD
VR0jBDQwMoAUgIYLk+nMlQ7O9ieV/SCIsC5GSp2hFqQUMBIxEDAOBgNVBAMMB2hv
bWUuYXaCAhABMA4GA1UdDwEB/wQEAwIFoDAzBggrBgEFBQcBAQQnMCUwIwYIKwYB
BQUHMAKGF2h0dHA6Ly9sb2NhbGhvc3QvY2EuY3J0MCwGA1UdHwQlMCMwIaAfoB2G
G2h0dHA6Ly9sb2NhbGhvc3QvY3JsL2NhLmNybDAWBgNVHREEDzANggtuYXMuaG9t
ZS5hdjAJBgNVHRMEAjAAMA0GCSqGSIb3DQEBCwUAA4ICAQAPV++DNVtvnbVjRFTT
hKn0sgtNSGATzk0JGlgR28cAXMofLc2eXBaZVXaM68wi/KJno79qAX3OnYGLSbJY
xZJ3EelCbdXaXV8J6lrqvt6VLx03H+Oto7DpKSmv22DP00/F/P/SPnWnvemgRzj9
DbFtw2cHzVcQ/3Tep0cb6yxk86AAkVZD86qAPaV97M9855FbDypXmG3sFGMI02j/
w4pSac0aLLtGeJg/t3uw+zPxUjw49HCIvWZ1/tXPTEvy+96l79XthMevlK83dHYE
DYiskQAp66i19f7m9ipxyQAQBWDDAMbheTmFItS8FDQW5omOQu1ekq1u+tQQgf5S
LKqwR6lD2aeVe5WQ8hONnpAMrsAkE15kEKg9Thsn7T+jumucNfnoxe2V/b7Ehm5z
pn/BYl8MSaddxFNJRaBN/rX3+ghF+RsSvaI7MqKGzwq0SXFbDYpFtGyE4fF6cMB2
LtC0yYWAZvrsvyUUMRbT/2U0O3JAfdyfs8v3VZHYyvq+EY0uUuBx88+F4mPbx5QJ
RYDr8/HlzXt/6bWS7e7DamKCZhiRHPLOgIloup2+51dbWPcrpXEV/mJDGN/a0IPv
nunsaAHgpMNkg+/VIl3j7THBQxjf7+En38CHVE4UQiQFMcvxNfIK1qZpjHG5pznA
m8+hHPunIs6JbEtOrGcnsXsQFQ==
-----END CERTIFICATE-----
