Certificate:
    Data:
        Version: 3 (0x2)
        Serial Number: 4097 (0x1001)
        Signature Algorithm: sha256WithRSAEncryption
        Issuer: CN=home.av
        Validity
            Not Before: Dec  2 05:29:23 2025 GMT
            Not After : Dec  1 05:29:23 2030 GMT
        Subject: CN=ica.home.av
        Subject Public Key Info:
            Public Key Algorithm: rsaEncryption
                Public-Key: (4096 bit)
                Modulus:
                    00:e5:4b:e8:95:5e:2a:9a:29:d4:eb:75:81:0e:6b:
                    0f:41:cc:aa:51:30:0f:98:f7:86:be:7b:10:83:8d:
                    7b:8d:e4:4e:69:56:8a:b0:33:7e:f9:58:3b:d9:35:
                    9d:7d:a8:6e:a2:fe:2d:82:e8:5e:a3:b7:43:32:4e:
                    3a:10:88:4d:73:b2:64:e1:d7:79:ae:3c:c7:ff:58:
                    4b:f6:97:69:5c:43:80:5c:f1:3d:4b:5e:ae:51:f4:
                    7a:87:dc:a1:db:fe:d5:5e:b3:d3:37:59:08:3d:8f:
                    d5:9b:d5:d2:03:1e:e3:99:c2:29:7d:01:3e:d0:a2:
                    65:db:45:b2:e8:8d:1b:cb:db:3a:92:ce:61:0c:a2:
                    db:d6:1e:9a:4a:88:b9:9b:69:73:2a:b0:ed:ab:b5:
                    cd:b6:14:6c:f3:2b:58:22:9e:0e:20:ea:03:02:fe:
                    f1:d0:25:0e:3b:8e:ef:60:36:3e:fa:bb:c4:ab:36:
                    e6:d1:42:d4:f5:c4:77:1d:23:ea:b1:cb:26:fa:40:
                    84:fc:21:61:37:c1:ea:40:37:55:32:13:93:26:e2:
                    62:c7:88:a2:1a:ce:43:87:6d:2c:36:b1:16:6b:70:
                    43:8d:c5:40:dc:1b:04:03:3c:19:9e:6c:f5:bf:6e:
                    8e:d3:dd:95:ac:9d:48:3f:e8:62:20:58:39:a9:76:
                    1e:b8:df:02:d0:d0:91:87:4c:6e:f5:12:6b:f6:80:
                    b1:1c:00:85:7c:ff:af:f4:67:0d:fe:a9:c5:97:ba:
                    d9:3e:b6:36:16:23:1c:95:39:8b:38:8a:e4:1a:1c:
                    aa:99:5f:31:29:8a:a4:ff:80:33:0d:4f:72:14:61:
                    83:79:b4:cc:ee:98:58:e1:e8:79:40:72:93:24:e0:
                    55:d6:c6:d8:7c:5e:03:22:be:1e:29:76:b9:e8:14:
                    fb:44:be:54:2c:61:1d:9a:2b:e9:b4:c1:5d:20:d5:
                    20:99:45:d5:70:ef:d9:23:0c:29:32:e6:64:23:91:
                    ed:ca:4c:fc:a9:3a:9d:73:de:b9:5b:7a:90:76:7a:
                    42:b3:0e:74:ae:ba:99:da:1e:8d:0e:74:29:a0:79:
                    36:d8:52:f4:24:38:c5:f0:bc:bb:4a:70:52:57:bf:
                    8f:e9:b7:91:e0:1d:10:9d:9f:2f:24:a4:2c:04:a6:
                    3a:a4:18:47:5f:42:62:80:63:1d:c0:45:2b:da:b6:
                    e6:7b:d5:5f:dd:1e:88:77:33:1e:0c:0f:b9:13:a2:
                    f8:dd:fc:0e:ba:68:b3:8c:4b:a9:29:49:fc:e8:23:
                    fb:27:3b:01:b0:56:a7:aa:c0:70:ef:2c:1c:c6:b0:
                    4f:3f:74:97:78:97:6e:56:f9:3f:e9:84:47:d7:59:
                    e5:ba:19
                Exponent: 65537 (0x10001)
        X509v3 extensions:
            X509v3 Subject Key Identifier: 
                80:86:0B:93:E9:CC:95:0E:CE:F6:27:95:FD:20:88:B0:2E:46:4A:9D
            X509v3 Authority Key Identifier: 
                36:20:2A:82:F2:DC:06:A2:51:BC:19:55:66:06:CC:E0:EC:12:01:9E
            X509v3 Basic Constraints: critical
                CA:TRUE
            X509v3 Key Usage: critical
                Digital Signature, Certificate Sign, CRL Sign
            Authority Information Access: 
                CA Issuers - URI:http://localhost/rootca.crt
            X509v3 CRL Distribution Points: 
                Full Name:
                  URI:http://localhost/crl/rootca.crl

    Signature Algorithm: sha256WithRSAEncryption
    Signature Value:
        68:b6:8e:f9:bd:0f:01:c7:6c:66:12:4f:08:ca:54:f3:6f:f3:
        ab:f7:46:8d:0d:88:ed:b0:42:18:b0:ae:8a:c3:b9:87:05:8b:
        b2:a5:24:b3:07:f8:b3:1d:54:b0:ee:f4:e8:fe:b2:13:68:d7:
        3d:85:f3:57:2e:a6:59:94:32:55:c0:37:3f:55:1d:11:42:10:
        8b:d2:0b:a5:c0:2c:44:42:a2:64:76:9f:ae:e2:03:73:af:1e:
        73:31:9d:b5:1b:95:1f:14:80:2b:53:01:23:30:d5:c0:af:dd:
        b7:31:bc:99:e4:6a:71:27:65:ff:16:95:33:ea:17:0f:4d:64:
        00:34:7d:24:ca:a3:a3:ff:72:ae:17:54:37:cf:0c:51:63:c3:
        66:c2:79:2c:78:bb:a1:ff:f0:35:e9:b4:49:e7:0e:85:c1:88:
        53:8e:8f:5a:eb:b6:90:b4:3e:03:d9:96:d9:4d:da:00:cc:5f:
        9d:c4:f2:2a:5b:fe:e4:9a:a2:0a:2e:ce:39:f4:5c:27:70:3e:
        ef:c5:2c:d8:85:6c:7c:d1:45:68:2a:5f:fc:77:86:2a:03:fc:
        17:1b:d4:58:8d:ea:96:b1:27:6f:c7:e2:9b:9c:b6:b8:24:04:
        f4:30:fd:42:90:e8:02:64:02:95:da:df:ca:e8:52:f2:92:ce:
        c1:06:5b:e4:dc:29:8c:7c:ef:2b:35:f1:df:97:ff:91:c7:ba:
        47:69:5e:a0:2e:7e:54:76:79:6e:4a:b2:39:98:e2:2b:78:d9:
        d4:5a:cd:33:46:3b:43:c0:bd:dd:d8:7f:fb:2c:21:c9:bd:9e:
        f6:32:2f:aa:a1:e8:af:93:63:c5:fb:70:7e:28:37:75:3d:ae:
        8c:ea:b9:52:c5:d0:ba:bc:3d:d4:5f:ee:8d:66:36:c3:48:70:
        b5:6f:b2:30:76:96:a1:bb:7c:aa:56:6a:5e:54:7d:0c:1e:f3:
        b2:44:20:2c:18:b3:39:e4:95:fe:65:a9:68:04:66:02:72:82:
        ec:5f:52:80:3e:39:11:f1:dd:87:eb:57:18:e3:8e:f2:4b:94:
        eb:a9:a1:1b:70:85:9a:74:4a:0b:57:93:0c:f0:96:5a:bd:2a:
        8a:fa:38:f5:d5:47:c4:6a:76:57:fb:28:76:54:a3:65:8d:b9:
        d9:43:94:f8:b8:db:85:e4:d4:ca:cb:98:19:1e:58:b3:35:9f:
        43:66:01:f5:de:21:48:07:11:e0:1f:67:14:fc:38:2f:3f:a7:
        b2:a3:36:90:87:b0:fb:76:83:da:cb:de:1f:9c:4d:8a:22:46:
        18:b6:7e:a6:df:fb:06:75:1e:87:76:ca:29:b8:22:d4:18:11:
        4f:c1:1b:8c:21:dc:4e:79
-----BEGIN CERTIFICATE-----
MIIFdDCCA1ygAwIBAgICEAEwDQYJKoZIhvcNAQELBQAwEjEQMA4GA1UEAwwHaG9t
ZS5hdjAeFw0yNTEyMDIwNTI5MjNaFw0zMDEyMDEwNTI5MjNaMBYxFDASBgNVBAMM
C2ljYS5ob21lLmF2MIICIjANBgkqhkiG9w0BAQEFAAOCAg8AMIICCgKCAgEA5Uvo
lV4qminU63WBDmsPQcyqUTAPmPeGvnsQg417jeROaVaKsDN++Vg72TWdfahuov4t
guheo7dDMk46EIhNc7Jk4dd5rjzH/1hL9pdpXEOAXPE9S16uUfR6h9yh2/7VXrPT
N1kIPY/Vm9XSAx7jmcIpfQE+0KJl20Wy6I0by9s6ks5hDKLb1h6aSoi5m2lzKrDt
q7XNthRs8ytYIp4OIOoDAv7x0CUOO47vYDY++rvEqzbm0ULU9cR3HSPqscsm+kCE
/CFhN8HqQDdVMhOTJuJix4iiGs5Dh20sNrEWa3BDjcVA3BsEAzwZnmz1v26O092V
rJ1IP+hiIFg5qXYeuN8C0NCRh0xu9RJr9oCxHACFfP+v9GcN/qnFl7rZPrY2FiMc
lTmLOIrkGhyqmV8xKYqk/4AzDU9yFGGDebTM7phY4eh5QHKTJOBV1sbYfF4DIr4e
KXa56BT7RL5ULGEdmivptMFdINUgmUXVcO/ZIwwpMuZkI5Htykz8qTqdc965W3qQ
dnpCsw50rrqZ2h6NDnQpoHk22FL0JDjF8Ly7SnBSV7+P6beR4B0QnZ8vJKQsBKY6
pBhHX0JigGMdwEUr2rbme9Vf3R6IdzMeDA+5E6L43fwOumizjEupKUn86CP7JzsB
sFanqsBw7ywcxrBPP3SXeJduVvk/6YRH11nluhkCAwEAAaOBzzCBzDAdBgNVHQ4E
FgQUgIYLk+nMlQ7O9ieV/SCIsC5GSp0wHwYDVR0jBBgwFoAUNiAqgvLcBqJRvBlV
ZgbM4OwSAZ4wDwYDVR0TAQH/BAUwAwEB/zAOBgNVHQ8BAf8EBAMCAYYwNwYIKwYB
BQUHAQEEKzApMCcGCCsGAQUFBzAChhtodHRwOi8vbG9jYWxob3N0L3Jvb3RjYS5j
cnQwMAYDVR0fBCkwJzAloCOgIYYfaHR0cDovL2xvY2FsaG9zdC9jcmwvcm9vdGNh
LmNybDANBgkqhkiG9w0BAQsFAAOCAgEAaLaO+b0PAcdsZhJPCMpU82/zq/dGjQ2I
7bBCGLCuisO5hwWLsqUkswf4sx1UsO706P6yE2jXPYXzVy6mWZQyVcA3P1UdEUIQ
i9ILpcAsREKiZHafruIDc68eczGdtRuVHxSAK1MBIzDVwK/dtzG8meRqcSdl/xaV
M+oXD01kADR9JMqjo/9yrhdUN88MUWPDZsJ5LHi7of/wNem0SecOhcGIU46PWuu2
kLQ+A9mW2U3aAMxfncTyKlv+5JqiCi7OOfRcJ3A+78Us2IVsfNFFaCpf/HeGKgP8
FxvUWI3qlrEnb8fim5y2uCQE9DD9QpDoAmQCldrfyuhS8pLOwQZb5NwpjHzvKzXx
35f/kce6R2leoC5+VHZ5bkqyOZjiK3jZ1FrNM0Y7Q8C93dh/+ywhyb2e9jIvqqHo
r5Njxftwfig3dT2ujOq5UsXQurw91F/ujWY2w0hwtW+yMHaWobt8qlZqXlR9DB7z
skQgLBizOeSV/mWpaARmAnKC7F9SgD45EfHdh+tXGOOO8kuU66mhG3CFmnRKC1eT
DPCWWr0qivo49dVHxGp2V/sodlSjZY252UOU+LjbheTUysuYGR5YszWfQ2YB9d4h
SAcR4B9nFPw4Lz+nsqM2kIew+3aD2sveH5xNiiJGGLZ+pt/7BnUeh3bKKbgi1BgR
T8EbjCHcTnk=
-----END CERTIFICATE-----
